; Function Attrs: nounwind uwtable
define internal range(i32 -2147483648, 1) i32 @yuv4_encode_frame(ptr noundef %0, ptr noundef %1, ptr noundef readonly captures(none) %2, ptr noundef writeonly captures(none) %3) #0 {
  %5 = getelementptr inbounds nuw i8, ptr %0, i64 112
  %6 = load i32, ptr %5, align 8, !tbaa !4
  %7 = add nsw i32 %6, 1
  %8 = sdiv i32 %7, 2
  %9 = mul nsw i32 %8, 6
  %10 = getelementptr inbounds nuw i8, ptr %0, i64 116
  %11 = load i32, ptr %10, align 4, !tbaa !27
  %12 = add nsw i32 %11, 1
  %13 = sdiv i32 %12, 2
  %14 = mul nsw i32 %9, %13
  %15 = sext i32 %14 to i64
  %16 = tail call i32 @ff_get_encode_buffer(ptr noundef %0, ptr noundef %1, i64 noundef %15, i32 noundef 0) #2
  %17 = icmp slt i32 %16, 0
  br i1 %17, label %108, label %18

18:                                               ; preds = %4
  %19 = getelementptr inbounds nuw i8, ptr %1, i64 24
  %20 = load ptr, ptr %19, align 8, !tbaa !28
  %21 = load ptr, ptr %2, align 8, !tbaa !30
  %22 = getelementptr inbounds nuw i8, ptr %2, i64 8
  %23 = load ptr, ptr %22, align 8, !tbaa !30
  %24 = getelementptr inbounds nuw i8, ptr %2, i64 16
  %25 = load ptr, ptr %24, align 8, !tbaa !30
  %26 = load i32, ptr %10, align 4, !tbaa !27
  %27 = icmp sgt i32 %26, 1
  br i1 %27, label %.preheader73.lr.ph, label %._crit_edge81

.preheader73.lr.ph:                               ; preds = %18
  %28 = getelementptr inbounds nuw i8, ptr %2, i64 64
  %29 = getelementptr inbounds nuw i8, ptr %2, i64 68
  %30 = getelementptr inbounds nuw i8, ptr %2, i64 72
  %.pre = load i32, ptr %5, align 8, !tbaa !4
  br label %.preheader73

.preheader73:                                     ; preds = %.preheader73.lr.ph, %._crit_edge
  %31 = phi i32 [ %26, %.preheader73.lr.ph ], [ %37, %._crit_edge ]
  %32 = phi i32 [ %.pre, %.preheader73.lr.ph ], [ %38, %._crit_edge ]
  %.06680 = phi i32 [ 0, %.preheader73.lr.ph ], [ %49, %._crit_edge ]
  %.06879 = phi ptr [ %25, %.preheader73.lr.ph ], [ %48, %._crit_edge ]
  %.06978 = phi ptr [ %23, %.preheader73.lr.ph ], [ %45, %._crit_edge ]
  %.07077 = phi ptr [ %21, %.preheader73.lr.ph ], [ %42, %._crit_edge ]
  %.07176 = phi ptr [ %20, %.preheader73.lr.ph ], [ %.1.lcssa, %._crit_edge ]
  %invariant.gep = getelementptr i8, ptr %.07077, i64 1
  %33 = icmp sgt i32 %32, 0
  br i1 %33, label %.lr.ph, label %._crit_edge

._crit_edge81:                                    ; preds = %._crit_edge, %18
  %.071.lcssa = phi ptr [ %20, %18 ], [ %.1.lcssa, %._crit_edge ]
  %.070.lcssa = phi ptr [ %21, %18 ], [ %42, %._crit_edge ]
  %.069.lcssa = phi ptr [ %23, %18 ], [ %45, %._crit_edge ]
  %.068.lcssa = phi ptr [ %25, %18 ], [ %48, %._crit_edge ]
  %.lcssa = phi i32 [ %26, %18 ], [ %37, %._crit_edge ]
  %34 = and i32 %.lcssa, 1
  %.not = icmp eq i32 %34, 0
  br i1 %.not, label %.loopexit, label %.preheader

.preheader:                                       ; preds = %._crit_edge81
  %35 = load i32, ptr %5, align 8, !tbaa !4
  %36 = icmp sgt i32 %35, 0
  br i1 %36, label %.lr.ph89, label %.loopexit

._crit_edge.loopexit:                             ; preds = %.lr.ph
  %.pre99 = load i32, ptr %10, align 4, !tbaa !27
  br label %._crit_edge

._crit_edge:                                      ; preds = %._crit_edge.loopexit, %.preheader73
  %37 = phi i32 [ %31, %.preheader73 ], [ %.pre99, %._crit_edge.loopexit ]
  %38 = phi i32 [ %32, %.preheader73 ], [ %79, %._crit_edge.loopexit ]
  %.1.lcssa = phi ptr [ %.07176, %.preheader73 ], [ %78, %._crit_edge.loopexit ]
  %39 = load i32, ptr %28, align 8, !tbaa !31
  %40 = shl nsw i32 %39, 1
  %41 = sext i32 %40 to i64
  %42 = getelementptr inbounds i8, ptr %.07077, i64 %41
  %43 = load i32, ptr %29, align 4, !tbaa !31
  %44 = sext i32 %43 to i64
  %45 = getelementptr inbounds i8, ptr %.06978, i64 %44
  %46 = load i32, ptr %30, align 8, !tbaa !31
  %47 = sext i32 %46 to i64
  %48 = getelementptr inbounds i8, ptr %.06879, i64 %47
  %49 = add nuw nsw i32 %.06680, 1
  %50 = sdiv i32 %37, 2
  %51 = icmp slt i32 %49, %50
  br i1 %51, label %.preheader73, label %._crit_edge81, !llvm.loop !32

.lr.ph:                                           ; preds = %.preheader73, %.lr.ph
  %indvars.iv = phi i64 [ %indvars.iv.next, %.lr.ph ], [ 0, %.preheader73 ]
  %.174 = phi ptr [ %78, %.lr.ph ], [ %.07176, %.preheader73 ]
  %52 = getelementptr inbounds nuw i8, ptr %.06978, i64 %indvars.iv
  %53 = load i8, ptr %52, align 1, !tbaa !34
  %54 = xor i8 %53, -128
  %55 = getelementptr inbounds nuw i8, ptr %.174, i64 1
  store i8 %54, ptr %.174, align 1, !tbaa !34
  %56 = getelementptr inbounds nuw i8, ptr %.06879, i64 %indvars.iv
  %57 = load i8, ptr %56, align 1, !tbaa !34
  %58 = xor i8 %57, -128
  %59 = getelementptr inbounds nuw i8, ptr %.174, i64 2
  store i8 %58, ptr %55, align 1, !tbaa !34
  %60 = shl nuw nsw i64 %indvars.iv, 1
  %61 = getelementptr inbounds nuw i8, ptr %.07077, i64 %60
  %62 = load i8, ptr %61, align 1, !tbaa !34
  %63 = getelementptr inbounds nuw i8, ptr %.174, i64 3
  store i8 %62, ptr %59, align 1, !tbaa !34
  %64 = getelementptr inbounds nuw i8, ptr %61, i64 1
  %65 = load i8, ptr %64, align 1, !tbaa !34
  %66 = getelementptr inbounds nuw i8, ptr %.174, i64 4
  store i8 %65, ptr %63, align 1, !tbaa !34
  %67 = load i32, ptr %28, align 8, !tbaa !31
  %68 = trunc nuw nsw i64 %60 to i32
  %69 = add nsw i32 %67, %68
  %70 = sext i32 %69 to i64
  %71 = getelementptr inbounds i8, ptr %.07077, i64 %70
  %72 = load i8, ptr %71, align 1, !tbaa !34
  %73 = getelementptr inbounds nuw i8, ptr %.174, i64 5
  store i8 %72, ptr %66, align 1, !tbaa !34
  %74 = load i32, ptr %28, align 8, !tbaa !31
  %75 = add nsw i32 %74, %68
  %76 = sext i32 %75 to i64
  %gep = getelementptr i8, ptr %invariant.gep, i64 %76
  %77 = load i8, ptr %gep, align 1, !tbaa !34
  %78 = getelementptr inbounds nuw i8, ptr %.174, i64 6
  store i8 %77, ptr %73, align 1, !tbaa !34
  %indvars.iv.next = add nuw nsw i64 %indvars.iv, 1
  %79 = load i32, ptr %5, align 8, !tbaa !4
  %80 = add nsw i32 %79, 1
  %81 = sdiv i32 %80, 2
  %82 = sext i32 %81 to i64
  %83 = icmp slt i64 %indvars.iv.next, %82
  br i1 %83, label %.lr.ph, label %._crit_edge.loopexit, !llvm.loop !35

.lr.ph89:                                         ; preds = %.preheader, %.lr.ph89
  %indvars.iv96 = phi i64 [ %indvars.iv.next97, %.lr.ph89 ], [ 0, %.preheader ]
  %.287 = phi ptr [ %102, %.lr.ph89 ], [ %.071.lcssa, %.preheader ]
  %84 = getelementptr inbounds nuw i8, ptr %.069.lcssa, i64 %indvars.iv96
  %85 = load i8, ptr %84, align 1, !tbaa !34
  %86 = xor i8 %85, -128
  %87 = getelementptr inbounds nuw i8, ptr %.287, i64 1
  store i8 %86, ptr %.287, align 1, !tbaa !34
  %88 = getelementptr inbounds nuw i8, ptr %.068.lcssa, i64 %indvars.iv96
  %89 = load i8, ptr %88, align 1, !tbaa !34
  %90 = xor i8 %89, -128
  %91 = getelementptr inbounds nuw i8, ptr %.287, i64 2
  store i8 %90, ptr %87, align 1, !tbaa !34
  %92 = shl nuw nsw i64 %indvars.iv96, 1
  %93 = getelementptr inbounds nuw i8, ptr %.070.lcssa, i64 %92
  %94 = load i8, ptr %93, align 1, !tbaa !34
  %95 = getelementptr inbounds nuw i8, ptr %.287, i64 3
  store i8 %94, ptr %91, align 1, !tbaa !34
  %96 = getelementptr inbounds nuw i8, ptr %93, i64 1
  %97 = load i8, ptr %96, align 1, !tbaa !34
  %98 = getelementptr inbounds nuw i8, ptr %.287, i64 4
  store i8 %97, ptr %95, align 1, !tbaa !34
  %99 = load i8, ptr %93, align 1, !tbaa !34
  %100 = getelementptr inbounds nuw i8, ptr %.287, i64 5
  store i8 %99, ptr %98, align 1, !tbaa !34
  %101 = load i8, ptr %96, align 1, !tbaa !34
  %102 = getelementptr inbounds nuw i8, ptr %.287, i64 6
  store i8 %101, ptr %100, align 1, !tbaa !34
  %indvars.iv.next97 = add nuw nsw i64 %indvars.iv96, 1
  %103 = load i32, ptr %5, align 8, !tbaa !4
  %104 = add nsw i32 %103, 1
  %105 = sdiv i32 %104, 2
  %106 = sext i32 %105 to i64
  %107 = icmp slt i64 %indvars.iv.next97, %106
  br i1 %107, label %.lr.ph89, label %.loopexit, !llvm.loop !36

.loopexit:                                        ; preds = %.lr.ph89, %.preheader, %._crit_edge81
  store i32 1, ptr %3, align 4, !tbaa !31
  br label %108

108:                                              ; preds = %4, %.loopexit
  %.067 = phi i32 [ 0, %.loopexit ], [ %16, %4 ]
  ret i32 %.067
}